target datalayout = "e-m:e-p270:32:32-p271:32:32-p272:64:64-i64:64-i128:128-f80:128-n8:16:32:64-S128"
target triple = "x86_64-unknown-linux-gnu"

%struct.BlockCopyState = type { ptr, ptr, i64, i64, i64, i32, %struct.CoMutex, i64, i32, %struct.BlockReqList, %struct.anon.0, i8, ptr, ptr, ptr, %struct.RateLimit }
%struct.CoMutex = type { i32, ptr, %struct.anon, %struct.anon, i32, i32, ptr }
%struct.anon = type { ptr }
%struct.BlockReqList = type { ptr }
%struct.anon.0 = type { ptr }
%struct.RateLimit = type { %struct.QemuMutex, i64, i64, i64, i64, i64 }
%struct.QemuMutex = type { %union.pthread_mutex_t, i8 }
%union.pthread_mutex_t = type { %struct.__pthread_mutex_s }
%struct.__pthread_mutex_s = type { i32, i32, i32, i32, i32, i16, i16, %struct.__pthread_internal_list }
%struct.__pthread_internal_list = type { ptr, ptr }
%struct.QemuLockable = type { ptr, ptr, ptr }
%struct.BlockCopyCallState = type { ptr, i64, i64, i32, i64, i8, ptr, ptr, ptr, i8, %struct.QemuCoSleep, i8, %struct.anon.3, i8, i32 }
%struct.QemuCoSleep = type { ptr }
%struct.anon.3 = type { ptr, ptr }

@.str.1 = private unnamed_addr constant [27 x i8] c"../qemu/block/block-copy.c\00", align 1
@__func__.block_copy_common = private unnamed_addr constant [18 x i8] c"block_copy_common\00", align 1

; Function Attrs: nounwind sspstrong uwtable
define internal void @qemu_lockable_unlock(ptr noundef %x) #0 {
entry:
  %x.addr = alloca ptr, align 8
  store ptr %x, ptr %x.addr, align 8
  %0 = load ptr, ptr %x.addr, align 8
  %unlock = getelementptr inbounds %struct.QemuLockable, ptr %0, i32 0, i32 2
  %1 = load ptr, ptr %unlock, align 8
  %2 = load ptr, ptr %x.addr, align 8
  %object = getelementptr inbounds %struct.QemuLockable, ptr %2, i32 0, i32 0
  %3 = load ptr, ptr %object, align 8
  call void %1(ptr noundef %3)
  ret void
}

; Function Attrs: nounwind sspstrong uwtable
define internal void @glib_autoptr_clear_QemuLockable(ptr noundef %_ptr) #0 {
entry:
  %_ptr.addr = alloca ptr, align 8
  store ptr %_ptr, ptr %_ptr.addr, align 8
  %0 = load ptr, ptr %_ptr.addr, align 8
  %tobool = icmp ne ptr %0, null
  br i1 %tobool, label %if.then, label %if.end

if.then:                                          ; preds = %entry
  %1 = load ptr, ptr %_ptr.addr, align 8
  call void @qemu_lockable_auto_unlock(ptr noundef %1)
  br label %if.end

if.end:                                           ; preds = %if.then, %entry
  ret void
}

; Function Attrs: nounwind sspstrong uwtable
define internal void @qemu_lockable_lock(ptr noundef %x) #0 {
entry:
  %x.addr = alloca ptr, align 8
  store ptr %x, ptr %x.addr, align 8
  %0 = load ptr, ptr %x.addr, align 8
  %lock = getelementptr inbounds %struct.QemuLockable, ptr %0, i32 0, i32 1
  %1 = load ptr, ptr %lock, align 8
  %2 = load ptr, ptr %x.addr, align 8
  %object = getelementptr inbounds %struct.QemuLockable, ptr %2, i32 0, i32 0
  %3 = load ptr, ptr %object, align 8
  call void %1(ptr noundef %3)
  ret void
}

; Function Attrs: nounwind sspstrong uwtable
define internal void @qemu_lockable_auto_unlock(ptr noundef %x) #0 {
entry:
  %x.addr = alloca ptr, align 8
  store ptr %x, ptr %x.addr, align 8
  %0 = load ptr, ptr %x.addr, align 8
  %tobool = icmp ne ptr %0, null
  br i1 %tobool, label %if.then, label %if.end

if.then:                                          ; preds = %entry
  %1 = load ptr, ptr %x.addr, align 8
  call void @qemu_lockable_unlock(ptr noundef %1)
  br label %if.end

if.end:                                           ; preds = %if.then, %entry
  ret void
}

; Function Attrs: nounwind sspstrong uwtable
define internal void @glib_autoptr_cleanup_QemuLockable(ptr noundef %_ptr) #0 {
entry:
  %_ptr.addr = alloca ptr, align 8
  store ptr %_ptr, ptr %_ptr.addr, align 8
  %0 = load ptr, ptr %_ptr.addr, align 8
  %1 = load ptr, ptr %0, align 8
  call void @glib_autoptr_clear_QemuLockable(ptr noundef %1)
  ret void
}

; Function Attrs: nounwind sspstrong uwtable
define internal ptr @qemu_lockable_auto_lock(ptr noundef %x) #0 {
entry:
  %x.addr = alloca ptr, align 8
  store ptr %x, ptr %x.addr, align 8
  %0 = load ptr, ptr %x.addr, align 8
  call void @qemu_lockable_lock(ptr noundef %0)
  %1 = load ptr, ptr %x.addr, align 8
  ret ptr %1
}

; Function Attrs: nounwind sspstrong uwtable
define internal i32 @block_copy_common(ptr noundef %call_state) #0 {
entry:
  %call_state.addr = alloca ptr, align 8
  %ret = alloca i32, align 4
  %s = alloca ptr, align 8
  %tmp = alloca i8, align 1
  %atomic-temp = alloca i8, align 1
  %qemu_lockable_auto29 = alloca ptr, align 8
  %.compoundliteral = alloca %struct.QemuLockable, align 8
  %tmp44 = alloca i8, align 1
  %atomic-temp46 = alloca i8, align 1
  %.atomictmp = alloca i8, align 1
  store ptr %call_state, ptr %call_state.addr, align 8
  %0 = load ptr, ptr %call_state.addr, align 8
  %s1 = getelementptr inbounds %struct.BlockCopyCallState, ptr %0, i32 0, i32 0
  %1 = load ptr, ptr %s1, align 8
  store ptr %1, ptr %s, align 8
  %2 = load ptr, ptr %s, align 8
  %lock = getelementptr inbounds %struct.BlockCopyState, ptr %2, i32 0, i32 6
  call void @qemu_co_mutex_lock(ptr noundef %lock)
  br label %do.body

do.body:                                          ; preds = %entry
  %3 = load ptr, ptr %s, align 8
  %calls = getelementptr inbounds %struct.BlockCopyState, ptr %3, i32 0, i32 10
  %lh_first = getelementptr inbounds %struct.anon.0, ptr %calls, i32 0, i32 0
  %4 = load ptr, ptr %lh_first, align 8
  %5 = load ptr, ptr %call_state.addr, align 8
  %list = getelementptr inbounds %struct.BlockCopyCallState, ptr %5, i32 0, i32 12
  %le_next = getelementptr inbounds %struct.anon.3, ptr %list, i32 0, i32 0
  store ptr %4, ptr %le_next, align 8
  %cmp = icmp ne ptr %4, null
  br i1 %cmp, label %if.then, label %if.end

if.then:                                          ; preds = %do.body
  %6 = load ptr, ptr %call_state.addr, align 8
  %list2 = getelementptr inbounds %struct.BlockCopyCallState, ptr %6, i32 0, i32 12
  %le_next3 = getelementptr inbounds %struct.anon.3, ptr %list2, i32 0, i32 0
  %7 = load ptr, ptr %s, align 8
  %calls4 = getelementptr inbounds %struct.BlockCopyState, ptr %7, i32 0, i32 10
  %lh_first5 = getelementptr inbounds %struct.anon.0, ptr %calls4, i32 0, i32 0
  %8 = load ptr, ptr %lh_first5, align 8
  %list6 = getelementptr inbounds %struct.BlockCopyCallState, ptr %8, i32 0, i32 12
  %le_prev = getelementptr inbounds %struct.anon.3, ptr %list6, i32 0, i32 1
  store ptr %le_next3, ptr %le_prev, align 8
  br label %if.end

if.end:                                           ; preds = %if.then, %do.body
  %9 = load ptr, ptr %call_state.addr, align 8
  %10 = load ptr, ptr %s, align 8
  %calls7 = getelementptr inbounds %struct.BlockCopyState, ptr %10, i32 0, i32 10
  %lh_first8 = getelementptr inbounds %struct.anon.0, ptr %calls7, i32 0, i32 0
  store ptr %9, ptr %lh_first8, align 8
  %11 = load ptr, ptr %s, align 8
  %calls9 = getelementptr inbounds %struct.BlockCopyState, ptr %11, i32 0, i32 10
  %lh_first10 = getelementptr inbounds %struct.anon.0, ptr %calls9, i32 0, i32 0
  %12 = load ptr, ptr %call_state.addr, align 8
  %list11 = getelementptr inbounds %struct.BlockCopyCallState, ptr %12, i32 0, i32 12
  %le_prev12 = getelementptr inbounds %struct.anon.3, ptr %list11, i32 0, i32 1
  store ptr %lh_first10, ptr %le_prev12, align 8
  br label %do.end

do.end:                                           ; preds = %if.end
  %13 = load ptr, ptr %s, align 8
  %lock13 = getelementptr inbounds %struct.BlockCopyState, ptr %13, i32 0, i32 6
  call void @qemu_co_mutex_unlock(ptr noundef %lock13)
  br label %do.body14

do.body14:                                        ; preds = %land.end, %do.end
  %14 = load ptr, ptr %call_state.addr, align 8
  %call = call i32 @block_copy_dirty_clusters(ptr noundef %14)
  store i32 %call, ptr %ret, align 4
  %15 = load i32, ptr %ret, align 4
  %cmp15 = icmp eq i32 %15, 0
  br i1 %cmp15, label %land.lhs.true, label %if.end35

land.lhs.true:                                    ; preds = %do.body14
  br label %while.cond

while.cond:                                       ; preds = %do.end17, %land.lhs.true
  br i1 false, label %while.body, label %while.end

while.body:                                       ; preds = %while.cond
  br label %do.body16

do.body16:                                        ; preds = %while.body
  call void @g_assertion_message_expr(ptr noundef null, ptr noundef @.str.1, i32 noundef 854, ptr noundef @__func__.block_copy_common, ptr noundef null) #10
  unreachable

do.end17:                                         ; No predecessors!
  br label %while.cond

while.end:                                        ; preds = %while.cond
  %16 = load ptr, ptr %call_state.addr, align 8
  %cancelled = getelementptr inbounds %struct.BlockCopyCallState, ptr %16, i32 0, i32 11
  %17 = load atomic i8, ptr %cancelled monotonic, align 8
  store i8 %17, ptr %atomic-temp, align 1
  %18 = load i8, ptr %atomic-temp, align 1
  %tobool = trunc i8 %18 to i1
  %frombool = zext i1 %tobool to i8
  store i8 %frombool, ptr %tmp, align 1
  %19 = load i8, ptr %tmp, align 1
  %tobool18 = trunc i8 %19 to i1
  br i1 %tobool18, label %if.end35, label %if.then19

if.then19:                                        ; preds = %while.end
  %object = getelementptr inbounds %struct.QemuLockable, ptr %.compoundliteral, i32 0, i32 0
  %20 = load ptr, ptr %s, align 8
  %lock20 = getelementptr inbounds %struct.BlockCopyState, ptr %20, i32 0, i32 6
  store ptr %lock20, ptr %object, align 8
  %lock21 = getelementptr inbounds %struct.QemuLockable, ptr %.compoundliteral, i32 0, i32 1
  store ptr @qemu_co_mutex_lock, ptr %lock21, align 8
  %unlock = getelementptr inbounds %struct.QemuLockable, ptr %.compoundliteral, i32 0, i32 2
  store ptr @qemu_co_mutex_unlock, ptr %unlock, align 8
  %call22 = call ptr @qemu_lockable_auto_lock(ptr noundef %.compoundliteral)
  store ptr %call22, ptr %qemu_lockable_auto29, align 8
  br label %for.cond

for.cond:                                         ; preds = %for.inc, %if.then19
  %21 = load ptr, ptr %qemu_lockable_auto29, align 8
  %tobool23 = icmp ne ptr %21, null
  br i1 %tobool23, label %for.body, label %for.cond.cleanup

for.cond.cleanup:                                 ; preds = %for.cond
  call void @glib_autoptr_cleanup_QemuLockable(ptr noundef %qemu_lockable_auto29)
  br label %for.end

for.body:                                         ; preds = %for.cond
  %22 = load ptr, ptr %s, align 8
  %reqs = getelementptr inbounds %struct.BlockCopyState, ptr %22, i32 0, i32 9
  %23 = load ptr, ptr %call_state.addr, align 8
  %offset = getelementptr inbounds %struct.BlockCopyCallState, ptr %23, i32 0, i32 1
  %24 = load i64, ptr %offset, align 8
  %25 = load ptr, ptr %call_state.addr, align 8
  %bytes = getelementptr inbounds %struct.BlockCopyCallState, ptr %25, i32 0, i32 2
  %26 = load i64, ptr %bytes, align 8
  %27 = load ptr, ptr %s, align 8
  %lock24 = getelementptr inbounds %struct.BlockCopyState, ptr %27, i32 0, i32 6
  %call25 = call zeroext i1 @reqlist_wait_one(ptr noundef %reqs, i64 noundef %24, i64 noundef %26, ptr noundef %lock24)
  %conv = zext i1 %call25 to i32
  store i32 %conv, ptr %ret, align 4
  %28 = load i32, ptr %ret, align 4
  %cmp26 = icmp eq i32 %28, 0
  br i1 %cmp26, label %if.then28, label %if.end34

if.then28:                                        ; preds = %for.body
  %29 = load ptr, ptr %s, align 8
  %copy_bitmap = getelementptr inbounds %struct.BlockCopyState, ptr %29, i32 0, i32 12
  %30 = load ptr, ptr %copy_bitmap, align 8
  %31 = load ptr, ptr %call_state.addr, align 8
  %offset29 = getelementptr inbounds %struct.BlockCopyCallState, ptr %31, i32 0, i32 1
  %32 = load i64, ptr %offset29, align 8
  %33 = load ptr, ptr %call_state.addr, align 8
  %bytes30 = getelementptr inbounds %struct.BlockCopyCallState, ptr %33, i32 0, i32 2
  %34 = load i64, ptr %bytes30, align 8
  %call31 = call i64 @bdrv_dirty_bitmap_next_dirty(ptr noundef %30, i64 noundef %32, i64 noundef %34)
  %cmp32 = icmp sge i64 %call31, 0
  %conv33 = zext i1 %cmp32 to i32
  store i32 %conv33, ptr %ret, align 4
  br label %if.end34

if.end34:                                         ; preds = %if.then28, %for.body
  br label %for.inc

for.inc:                                          ; preds = %if.end34
  %35 = load ptr, ptr %qemu_lockable_auto29, align 8
  call void @qemu_lockable_auto_unlock(ptr noundef %35)
  store ptr null, ptr %qemu_lockable_auto29, align 8
  br label %for.cond, !llvm.loop !5

for.end:                                          ; preds = %for.cond.cleanup
  br label %if.end35

if.end35:                                         ; preds = %for.end, %while.end, %do.body14
  br label %do.cond

do.cond:                                          ; preds = %if.end35
  %36 = load i32, ptr %ret, align 4
  %cmp36 = icmp sgt i32 %36, 0
  br i1 %cmp36, label %land.rhs, label %land.end

land.rhs:                                         ; preds = %do.cond
  br label %while.cond38

while.cond38:                                     ; preds = %do.end42, %land.rhs
  br i1 false, label %while.body39, label %while.end43

while.body39:                                     ; preds = %while.cond38
  br label %do.body40

do.body40:                                        ; preds = %while.body39
  call void @g_assertion_message_expr(ptr noundef null, ptr noundef @.str.1, i32 noundef 890, ptr noundef @__func__.block_copy_common, ptr noundef null) #10
  unreachable

do.end42:                                         ; No predecessors!
  br label %while.cond38

while.end43:                                      ; preds = %while.cond38
  %37 = load ptr, ptr %call_state.addr, align 8
  %cancelled45 = getelementptr inbounds %struct.BlockCopyCallState, ptr %37, i32 0, i32 11
  %38 = load atomic i8, ptr %cancelled45 monotonic, align 8
  store i8 %38, ptr %atomic-temp46, align 1
  %39 = load i8, ptr %atomic-temp46, align 1
  %tobool47 = trunc i8 %39 to i1
  %frombool48 = zext i1 %tobool47 to i8
  store i8 %frombool48, ptr %tmp44, align 1
  %40 = load i8, ptr %tmp44, align 1
  %tobool49 = trunc i8 %40 to i1
  %lnot = xor i1 %tobool49, true
  br label %land.end

land.end:                                         ; preds = %while.end43, %do.cond
  %41 = phi i1 [ false, %do.cond ], [ %lnot, %while.end43 ]
  br i1 %41, label %do.body14, label %do.end50, !llvm.loop !7

do.end50:                                         ; preds = %land.end
  br label %do.body51

do.body51:                                        ; preds = %do.end50
  br label %while.cond52

while.cond52:                                     ; preds = %do.end56, %do.body51
  br i1 false, label %while.body53, label %while.end57

while.body53:                                     ; preds = %while.cond52
  br label %do.body54

do.body54:                                        ; preds = %while.body53
  call void @g_assertion_message_expr(ptr noundef null, ptr noundef @.str.1, i32 noundef 892, ptr noundef @__func__.block_copy_common, ptr noundef null) #10
  unreachable

do.end56:                                         ; No predecessors!
  br label %while.cond52

while.end57:                                      ; preds = %while.cond52
  %42 = load ptr, ptr %call_state.addr, align 8
  %finished = getelementptr inbounds %struct.BlockCopyCallState, ptr %42, i32 0, i32 9
  store i8 1, ptr %.atomictmp, align 1
  %43 = load i8, ptr %.atomictmp, align 1
  store atomic i8 %43, ptr %finished release, align 8
  br label %do.end59

do.end59:                                         ; preds = %while.end57
  %44 = load ptr, ptr %call_state.addr, align 8
  %cb = getelementptr inbounds %struct.BlockCopyCallState, ptr %44, i32 0, i32 6
  %45 = load ptr, ptr %cb, align 8
  %tobool60 = icmp ne ptr %45, null
  br i1 %tobool60, label %if.then61, label %if.end63

if.then61:                                        ; preds = %do.end59
  %46 = load ptr, ptr %call_state.addr, align 8
  %cb62 = getelementptr inbounds %struct.BlockCopyCallState, ptr %46, i32 0, i32 6
  %47 = load ptr, ptr %cb62, align 8
  %48 = load ptr, ptr %call_state.addr, align 8
  %cb_opaque = getelementptr inbounds %struct.BlockCopyCallState, ptr %48, i32 0, i32 7
  %49 = load ptr, ptr %cb_opaque, align 8
  call void %47(ptr noundef %49)
  br label %if.end63

if.end63:                                         ; preds = %if.then61, %do.end59
  %50 = load ptr, ptr %s, align 8
  %lock64 = getelementptr inbounds %struct.BlockCopyState, ptr %50, i32 0, i32 6
  call void @qemu_co_mutex_lock(ptr noundef %lock64)
  br label %do.body65

do.body65:                                        ; preds = %if.end63
  %51 = load ptr, ptr %call_state.addr, align 8
  %list66 = getelementptr inbounds %struct.BlockCopyCallState, ptr %51, i32 0, i32 12
  %le_next67 = getelementptr inbounds %struct.anon.3, ptr %list66, i32 0, i32 0
  %52 = load ptr, ptr %le_next67, align 8
  %cmp68 = icmp ne ptr %52, null
  br i1 %cmp68, label %if.then70, label %if.end77

if.then70:                                        ; preds = %do.body65
  %53 = load ptr, ptr %call_state.addr, align 8
  %list71 = getelementptr inbounds %struct.BlockCopyCallState, ptr %53, i32 0, i32 12
  %le_prev72 = getelementptr inbounds %struct.anon.3, ptr %list71, i32 0, i32 1
  %54 = load ptr, ptr %le_prev72, align 8
  %55 = load ptr, ptr %call_state.addr, align 8
  %list73 = getelementptr inbounds %struct.BlockCopyCallState, ptr %55, i32 0, i32 12
  %le_next74 = getelementptr inbounds %struct.anon.3, ptr %list73, i32 0, i32 0
  %56 = load ptr, ptr %le_next74, align 8
  %list75 = getelementptr inbounds %struct.BlockCopyCallState, ptr %56, i32 0, i32 12
  %le_prev76 = getelementptr inbounds %struct.anon.3, ptr %list75, i32 0, i32 1
  store ptr %54, ptr %le_prev76, align 8
  br label %if.end77

if.end77:                                         ; preds = %if.then70, %do.body65
  %57 = load ptr, ptr %call_state.addr, align 8
  %list78 = getelementptr inbounds %struct.BlockCopyCallState, ptr %57, i32 0, i32 12
  %le_next79 = getelementptr inbounds %struct.anon.3, ptr %list78, i32 0, i32 0
  %58 = load ptr, ptr %le_next79, align 8
  %59 = load ptr, ptr %call_state.addr, align 8
  %list80 = getelementptr inbounds %struct.BlockCopyCallState, ptr %59, i32 0, i32 12
  %le_prev81 = getelementptr inbounds %struct.anon.3, ptr %list80, i32 0, i32 1
  %60 = load ptr, ptr %le_prev81, align 8
  store ptr %58, ptr %60, align 8
  %61 = load ptr, ptr %call_state.addr, align 8
  %list82 = getelementptr inbounds %struct.BlockCopyCallState, ptr %61, i32 0, i32 12
  %le_next83 = getelementptr inbounds %struct.anon.3, ptr %list82, i32 0, i32 0
  store ptr null, ptr %le_next83, align 8
  %62 = load ptr, ptr %call_state.addr, align 8
  %list84 = getelementptr inbounds %struct.BlockCopyCallState, ptr %62, i32 0, i32 12
  %le_prev85 = getelementptr inbounds %struct.anon.3, ptr %list84, i32 0, i32 1
  store ptr null, ptr %le_prev85, align 8
  br label %do.end87

do.end87:                                         ; preds = %if.end77
  %63 = load ptr, ptr %s, align 8
  %lock88 = getelementptr inbounds %struct.BlockCopyState, ptr %63, i32 0, i32 6
  call void @qemu_co_mutex_unlock(ptr noundef %lock88)
  %64 = load i32, ptr %ret, align 4
  ret i32 %64
}