; Function Attrs: nounwind sspstrong uwtable
define internal i32 @block_copy_common(ptr noundef initializes((96, 104)) %call_state) #0 {
entry:
  %0 = load ptr, ptr %call_state, align 8
  %lock = getelementptr inbounds nuw i8, ptr %0, i64 48
  tail call void @qemu_co_mutex_lock(ptr noundef nonnull %lock) #14
  %calls = getelementptr inbounds nuw i8, ptr %0, i64 120
  %1 = load ptr, ptr %calls, align 8
  %list = getelementptr inbounds nuw i8, ptr %call_state, i64 96
  store ptr %1, ptr %list, align 8
  %cmp.not = icmp eq ptr %1, null
  br i1 %cmp.not, label %if.end, label %if.then

if.then:                                          ; preds = %entry
  %le_prev = getelementptr inbounds nuw i8, ptr %1, i64 104
  store ptr %list, ptr %le_prev, align 8
  br label %if.end

if.end:                                           ; preds = %if.then, %entry
  store ptr %call_state, ptr %calls, align 8
  %le_prev12 = getelementptr inbounds nuw i8, ptr %call_state, i64 104
  store ptr %calls, ptr %le_prev12, align 8
  tail call void @qemu_co_mutex_unlock(ptr noundef nonnull %lock) #14
  %cancelled = getelementptr inbounds nuw i8, ptr %call_state, i64 88
  %reqs = getelementptr inbounds nuw i8, ptr %0, i64 112
  %offset = getelementptr inbounds nuw i8, ptr %call_state, i64 8
  %bytes = getelementptr inbounds nuw i8, ptr %call_state, i64 16
  %copy_bitmap = getelementptr inbounds nuw i8, ptr %0, i64 136
  br label %do.body14

do.body14:                                        ; preds = %while.end43, %if.end
  %call = tail call i32 @block_copy_dirty_clusters(ptr noundef nonnull %call_state)
  %cmp15 = icmp eq i32 %call, 0
  br i1 %cmp15, label %while.end, label %do.cond

while.end:                                        ; preds = %do.body14
  %2 = load atomic i8, ptr %cancelled monotonic, align 8
  %tobool = trunc i8 %2 to i1
  br i1 %tobool, label %while.end57, label %if.then19

if.then19:                                        ; preds = %while.end
  tail call void @qemu_co_mutex_lock(ptr noundef nonnull %lock) #14
  %3 = load i64, ptr %offset, align 8
  %4 = load i64, ptr %bytes, align 8
  %call25.us = tail call zeroext i1 @reqlist_wait_one(ptr noundef nonnull %reqs, i64 noundef %3, i64 noundef %4, ptr noundef nonnull %lock) #14
  br i1 %call25.us, label %qemu_lockable_auto_unlock.exit.us, label %if.then28.us

if.then28.us:                                     ; preds = %if.then19
  %5 = load ptr, ptr %copy_bitmap, align 8
  %6 = load i64, ptr %offset, align 8
  %7 = load i64, ptr %bytes, align 8
  %call31.us = tail call i64 @bdrv_dirty_bitmap_next_dirty(ptr noundef %5, i64 noundef %6, i64 noundef %7) #14
  %cmp32.us = icmp sgt i64 %call31.us, -1
  %conv33.us = zext i1 %cmp32.us to i32
  br label %qemu_lockable_auto_unlock.exit.us

qemu_lockable_auto_unlock.exit.us:                ; preds = %if.then28.us, %if.then19
  %ret.1.us = phi i32 [ %conv33.us, %if.then28.us ], [ 1, %if.then19 ]
  tail call void @qemu_co_mutex_unlock(ptr noundef nonnull %lock) #14
  br label %do.cond

do.cond:                                          ; preds = %qemu_lockable_auto_unlock.exit.us, %do.body14
  %ret.2 = phi i32 [ %call, %do.body14 ], [ %ret.1.us, %qemu_lockable_auto_unlock.exit.us ]
  %cmp36 = icmp sgt i32 %ret.2, 0
  br i1 %cmp36, label %while.end43, label %while.end57

while.end43:                                      ; preds = %do.cond
  %8 = load atomic i8, ptr %cancelled monotonic, align 8
  %tobool47 = trunc i8 %8 to i1
  br i1 %tobool47, label %while.end57, label %do.body14, !llvm.loop !5

while.end57:                                      ; preds = %while.end, %do.cond, %while.end43
  %ret.242 = phi i32 [ %ret.2, %do.cond ], [ %ret.2, %while.end43 ], [ 0, %while.end ]
  %finished = getelementptr inbounds nuw i8, ptr %call_state, i64 72
  store atomic i8 1, ptr %finished release, align 8
  %cb = getelementptr inbounds nuw i8, ptr %call_state, i64 48
  %9 = load ptr, ptr %cb, align 8
  %tobool60.not = icmp eq ptr %9, null
  br i1 %tobool60.not, label %if.end63, label %if.then61

if.then61:                                        ; preds = %while.end57
  %cb_opaque = getelementptr inbounds nuw i8, ptr %call_state, i64 56
  %10 = load ptr, ptr %cb_opaque, align 8
  tail call void %9(ptr noundef %10) #14
  br label %if.end63

if.end63:                                         ; preds = %if.then61, %while.end57
  tail call void @qemu_co_mutex_lock(ptr noundef nonnull %lock) #14
  %11 = load ptr, ptr %list, align 8
  %cmp68.not = icmp eq ptr %11, null
  %.pre51 = load ptr, ptr %le_prev12, align 8
  br i1 %cmp68.not, label %if.end77, label %if.then70

if.then70:                                        ; preds = %if.end63
  %le_prev76 = getelementptr inbounds nuw i8, ptr %11, i64 104
  store ptr %.pre51, ptr %le_prev76, align 8
  %.pre = load ptr, ptr %list, align 8
  br label %if.end77

if.end77:                                         ; preds = %if.then70, %if.end63
  %12 = phi ptr [ %.pre, %if.then70 ], [ null, %if.end63 ]
  store ptr %12, ptr %.pre51, align 8
  tail call void @llvm.memset.p0.i64(ptr noundef nonnull align 8 dereferenceable(16) %list, i8 0, i64 16, i1 false)
  tail call void @qemu_co_mutex_unlock(ptr noundef nonnull %lock) #14
  ret i32 %ret.242
}